target datalayout = "e-m:e-p270:32:32-p271:32:32-p272:64:64-i64:64-i128:128-f80:128-n8:16:32:64-S128"
target triple = "x86_64-pc-linux-gnu"

@.str.13 = private unnamed_addr constant [4 x i8] c"%Lf\00", align 1

; Function Attrs: nounwind uwtable
define dso_local void @packlongdouble(x86_fp80 noundef %0, ptr noundef %1) #0 {
  %3 = alloca x86_fp80, align 16
  %4 = alloca ptr, align 8
  %5 = alloca [256 x i8], align 16
  %6 = alloca i32, align 4
  store x86_fp80 %0, ptr %3, align 16
  store ptr %1, ptr %4, align 8
  call void @llvm.lifetime.start.p0(i64 256, ptr %5) #9
  %7 = getelementptr inbounds [256 x i8], ptr %5, i64 0, i64 0
  %8 = load x86_fp80, ptr %3, align 16
  %9 = call i32 (ptr, i64, ptr, ...) @snprintf(ptr noundef %7, i64 noundef 256, ptr noundef @.str.13, x86_fp80 noundef %8) #9
  br label %10

10:                                               ; preds = %2
  call void @llvm.lifetime.start.p0(i64 4, ptr %6) #9
  store i32 0, ptr %6, align 4
  %11 = getelementptr inbounds [256 x i8], ptr %5, i64 0, i64 0
  %12 = call i64 @strlen(ptr noundef %11) #11
  %13 = trunc i64 %12 to i32
  %14 = add i32 %13, 1
  store i32 %14, ptr %6, align 4
  %15 = getelementptr inbounds [256 x i8], ptr %5, i64 0, i64 0
  %16 = load i32, ptr %6, align 4
  %17 = load ptr, ptr %4, align 8
  call void @packmem(ptr noundef %15, i32 noundef %16, ptr noundef %17)
  call void @llvm.lifetime.end.p0(i64 4, ptr %6) #9
  br label %18

18:                                               ; preds = %10
  br label %19

19:                                               ; preds = %18
  call void @llvm.lifetime.end.p0(i64 256, ptr %5) #9
  ret void
}