; Function Attrs: nounwind uwtable
define dso_local void @packlongdouble(x86_fp80 noundef %0, ptr noundef %1) #0 {
  %3 = alloca [256 x i8], align 16
  call void @llvm.lifetime.start.p0(i64 256, ptr nonnull %3) #14
  %4 = call i32 (ptr, i64, ptr, ...) @snprintf(ptr noundef nonnull dereferenceable(1) %3, i64 noundef 256, ptr noundef nonnull @.str.13, x86_fp80 noundef %0) #14
  %5 = call i64 @strlen(ptr noundef nonnull dereferenceable(1) %3) #16
  %6 = trunc i64 %5 to i32
  %7 = add i32 %6, 1
  call void @packmem(ptr noundef nonnull %3, i32 noundef %7, ptr noundef %1)
  call void @llvm.lifetime.end.p0(i64 256, ptr nonnull %3) #14
  ret void
}